target datalayout = "e-m:e-p270:32:32-p271:32:32-p272:64:64-i64:64-i128:128-f80:128-n8:16:32:64-S128"
target triple = "x86_64-pc-linux-gnu"

@.str = private unnamed_addr constant [103 x i8] c"generated/home/dtcxzyw/WorkSpace/Projects/compilers/llvm-opt-benchmark/bench/hdf5/hdf5/src/H5Pencdec.c\00", align 1
@H5E_PLIST_g = external global i64, align 8
@H5E_BADVALUE_g = external global i64, align 8
@__func__.H5P__decode_unsigned = private unnamed_addr constant [21 x i8] c"H5P__decode_unsigned\00", align 1
@.str.3 = private unnamed_addr constant [32 x i8] c"unsigned value can't be decoded\00", align 1

; Function Attrs: nounwind uwtable
define i32 @H5P__decode_unsigned(ptr noundef %0, ptr noundef %1) #0 {
  %3 = alloca ptr, align 8
  %4 = alloca ptr, align 8
  %5 = alloca ptr, align 8
  %6 = alloca ptr, align 8
  %7 = alloca i32, align 4
  %8 = alloca i32, align 4
  %9 = alloca i8, align 1
  store ptr %0, ptr %3, align 8
  store ptr %1, ptr %4, align 8
  %10 = load ptr, ptr %4, align 8
  store ptr %10, ptr %5, align 8
  %11 = load ptr, ptr %3, align 8
  store ptr %11, ptr %6, align 8
  store i32 0, ptr %8, align 4
  store i8 0, ptr %9, align 1
  %12 = load ptr, ptr %6, align 8
  %13 = load ptr, ptr %12, align 8
  %14 = getelementptr inbounds i8, ptr %13, i32 1
  store ptr %14, ptr %12, align 8
  %15 = load i8, ptr %13, align 1
  %16 = zext i8 %15 to i32
  store i32 %16, ptr %7, align 4
  %17 = load i32, ptr %7, align 4
  %18 = zext i32 %17 to i64
  %19 = icmp ne i64 %18, 4
  br i1 %19, label %20, label %35

20:                                               ; preds = %2
  br label %21

21:                                               ; preds = %20
  br label %22

22:                                               ; preds = %21
  br label %23

23:                                               ; preds = %22
  %24 = load i64, ptr @H5E_PLIST_g, align 8
  %25 = load i64, ptr @H5E_BADVALUE_g, align 8
  %26 = call i32 (ptr, ptr, i32, i64, i64, ptr, ...) @H5E_printf_stack(ptr noundef @.str, ptr noundef @__func__.H5P__decode_unsigned, i32 noundef 545, i64 noundef %24, i64 noundef %25, ptr noundef @.str.3)
  br label %27

27:                                               ; preds = %23
  store i8 1, ptr %9, align 1
  %28 = load i8, ptr %9, align 1
  %29 = trunc i8 %28 to i1
  %30 = zext i1 %29 to i8
  store i8 %30, ptr %9, align 1
  br label %31

31:                                               ; preds = %27
  br label %32

32:                                               ; preds = %31
  store i32 -1, ptr %8, align 4
  br label %85

33:                                               ; No predecessors!
  br label %34

34:                                               ; preds = %33
  br label %35

35:                                               ; preds = %34, %2
  br label %36

36:                                               ; preds = %35
  br label %37

37:                                               ; preds = %36
  %38 = load ptr, ptr %6, align 8
  %39 = load ptr, ptr %38, align 8
  %40 = load i8, ptr %39, align 1
  %41 = zext i8 %40 to i32
  %42 = and i32 %41, 255
  %43 = load ptr, ptr %5, align 8
  store i32 %42, ptr %43, align 4
  %44 = load ptr, ptr %6, align 8
  %45 = load ptr, ptr %44, align 8
  %46 = getelementptr inbounds i8, ptr %45, i32 1
  store ptr %46, ptr %44, align 8
  %47 = load ptr, ptr %6, align 8
  %48 = load ptr, ptr %47, align 8
  %49 = load i8, ptr %48, align 1
  %50 = zext i8 %49 to i32
  %51 = and i32 %50, 255
  %52 = shl i32 %51, 8
  %53 = load ptr, ptr %5, align 8
  %54 = load i32, ptr %53, align 4
  %55 = or i32 %54, %52
  store i32 %55, ptr %53, align 4
  %56 = load ptr, ptr %6, align 8
  %57 = load ptr, ptr %56, align 8
  %58 = getelementptr inbounds i8, ptr %57, i32 1
  store ptr %58, ptr %56, align 8
  %59 = load ptr, ptr %6, align 8
  %60 = load ptr, ptr %59, align 8
  %61 = load i8, ptr %60, align 1
  %62 = zext i8 %61 to i32
  %63 = and i32 %62, 255
  %64 = shl i32 %63, 16
  %65 = load ptr, ptr %5, align 8
  %66 = load i32, ptr %65, align 4
  %67 = or i32 %66, %64
  store i32 %67, ptr %65, align 4
  %68 = load ptr, ptr %6, align 8
  %69 = load ptr, ptr %68, align 8
  %70 = getelementptr inbounds i8, ptr %69, i32 1
  store ptr %70, ptr %68, align 8
  %71 = load ptr, ptr %6, align 8
  %72 = load ptr, ptr %71, align 8
  %73 = load i8, ptr %72, align 1
  %74 = zext i8 %73 to i32
  %75 = and i32 %74, 255
  %76 = shl i32 %75, 24
  %77 = load ptr, ptr %5, align 8
  %78 = load i32, ptr %77, align 4
  %79 = or i32 %78, %76
  store i32 %79, ptr %77, align 4
  %80 = load ptr, ptr %6, align 8
  %81 = load ptr, ptr %80, align 8
  %82 = getelementptr inbounds i8, ptr %81, i32 1
  store ptr %82, ptr %80, align 8
  br label %83

83:                                               ; preds = %37
  br label %84

84:                                               ; preds = %83
  br label %85

85:                                               ; preds = %84, %32
  %86 = load i32, ptr %8, align 4
  ret i32 %86
}