; Function Attrs: nounwind uwtable
define range(i32 -1, 1) i32 @H5P__decode_unsigned(ptr noundef captures(none) %0, ptr noundef captures(none) %1) local_unnamed_addr #2 {
  %3 = load ptr, ptr %0, align 8
  %4 = getelementptr inbounds nuw i8, ptr %3, i64 1
  store ptr %4, ptr %0, align 8
  %5 = load i8, ptr %3, align 1
  %.not = icmp eq i8 %5, 4
  br i1 %.not, label %10, label %6

6:                                                ; preds = %2
  %7 = load i64, ptr @H5E_PLIST_g, align 8
  %8 = load i64, ptr @H5E_BADVALUE_g, align 8
  %9 = tail call i32 (ptr, ptr, i32, i64, i64, ptr, ...) @H5E_printf_stack(ptr noundef nonnull @.str, ptr noundef nonnull @__func__.H5P__decode_unsigned, i32 noundef 545, i64 noundef %7, i64 noundef %8, ptr noundef nonnull @.str.3) #8
  br label %36

10:                                               ; preds = %2
  %11 = load i8, ptr %4, align 1
  %12 = zext i8 %11 to i32
  store i32 %12, ptr %1, align 4
  %13 = load ptr, ptr %0, align 8
  %14 = getelementptr inbounds nuw i8, ptr %13, i64 1
  store ptr %14, ptr %0, align 8
  %15 = load i8, ptr %14, align 1
  %16 = zext i8 %15 to i32
  %17 = shl nuw nsw i32 %16, 8
  %18 = load i32, ptr %1, align 4
  %19 = or i32 %17, %18
  store i32 %19, ptr %1, align 4
  %20 = load ptr, ptr %0, align 8
  %21 = getelementptr inbounds nuw i8, ptr %20, i64 1
  store ptr %21, ptr %0, align 8
  %22 = load i8, ptr %21, align 1
  %23 = zext i8 %22 to i32
  %24 = shl nuw nsw i32 %23, 16
  %25 = load i32, ptr %1, align 4
  %26 = or i32 %24, %25
  store i32 %26, ptr %1, align 4
  %27 = load ptr, ptr %0, align 8
  %28 = getelementptr inbounds nuw i8, ptr %27, i64 1
  store ptr %28, ptr %0, align 8
  %29 = load i8, ptr %28, align 1
  %30 = zext i8 %29 to i32
  %31 = shl nuw i32 %30, 24
  %32 = load i32, ptr %1, align 4
  %33 = or i32 %31, %32
  store i32 %33, ptr %1, align 4
  %34 = load ptr, ptr %0, align 8
  %35 = getelementptr inbounds nuw i8, ptr %34, i64 1
  store ptr %35, ptr %0, align 8
  br label %36

36:                                               ; preds = %10, %6
  %.0 = phi i32 [ -1, %6 ], [ 0, %10 ]
  ret i32 %.0
}